target datalayout = "e-m:e-p270:32:32-p271:32:32-p272:64:64-i64:64-i128:128-f80:128-n8:16:32:64-S128"
target triple = "x86_64-pc-linux-gnu"

%"class.std::__cxx11::basic_string" = type { %"struct.std::__cxx11::basic_string<char>::_Alloc_hider", i64, %union.anon }
%"struct.std::__cxx11::basic_string<char>::_Alloc_hider" = type { ptr }
%union.anon = type { i64, [8 x i8] }
%"struct.open_spiel::morpion_solitaire::Point" = type { i32, i32 }
%"class.open_spiel::morpion_solitaire::Line" = type { %"struct.std::array", %"struct.open_spiel::morpion_solitaire::Point", %"struct.open_spiel::morpion_solitaire::Point", %"class.std::vector" }
%"struct.std::array" = type { [2 x i32] }
%"class.std::vector" = type { %"struct.std::_Vector_base" }
%"struct.std::_Vector_base" = type { %"struct.std::_Vector_base<open_spiel::morpion_solitaire::Point, std::allocator<open_spiel::morpion_solitaire::Point>>::_Vector_impl" }
%"struct.std::_Vector_base<open_spiel::morpion_solitaire::Point, std::allocator<open_spiel::morpion_solitaire::Point>>::_Vector_impl" = type { %"struct.std::_Vector_base<open_spiel::morpion_solitaire::Point, std::allocator<open_spiel::morpion_solitaire::Point>>::_Vector_impl_data" }
%"struct.std::_Vector_base<open_spiel::morpion_solitaire::Point, std::allocator<open_spiel::morpion_solitaire::Point>>::_Vector_impl_data" = type { ptr, ptr, ptr }
%"class.absl::debian2::AlphaNum" = type { %"class.absl::debian2::string_view", [32 x i8] }
%"class.absl::debian2::string_view" = type { ptr, i64 }
%class.anon = type { i8 }

@.str.6 = private unnamed_addr constant [36 x i8] c"Unhandled case in Line::GetAction()\00", align 1
@.str.7 = private unnamed_addr constant [13 x i8] c", dirCode = \00", align 1

; Function Attrs: mustprogress nounwind uwtable
define linkonce_odr void @_ZZN4absl7debian211string_view19CheckLengthInternalEmENKUlvE_clEv(ptr noundef nonnull align 1 dereferenceable(1) %0) #6 comdat align 2 {
  %2 = alloca ptr, align 8
  store ptr %0, ptr %2, align 8
  br label %3

3:                                                ; preds = %1
  call void @llvm.trap()
  unreachable

4:                                                ; No predecessors!
  ret void
}

; Function Attrs: mustprogress uwtable
define linkonce_odr noundef i64 @_ZN4absl7debian211string_view19CheckLengthInternalEm(i64 noundef %0) #4 comdat align 2 {
  %2 = alloca i64, align 8
  %3 = alloca %class.anon, align 1
  store i64 %0, ptr %2, align 8
  %4 = load i64, ptr %2, align 8
  %5 = icmp ule i64 %4, 9223372036854775807
  br i1 %5, label %6, label %7

6:                                                ; preds = %1
  br label %8

7:                                                ; preds = %1
  call void @_ZZN4absl7debian211string_view19CheckLengthInternalEmENKUlvE_clEv(ptr noundef nonnull align 1 dereferenceable(1) %3)
  br label %8

8:                                                ; preds = %7, %6
  %9 = load i64, ptr %2, align 8
  ret i64 %9
}

; Function Attrs: mustprogress nounwind uwtable
define linkonce_odr noundef i64 @_ZN4absl7debian211string_view14StrlenInternalEPKc(ptr noundef %0) #6 comdat align 2 {
  %2 = alloca ptr, align 8
  store ptr %0, ptr %2, align 8
  %3 = load ptr, ptr %2, align 8
  %4 = call i64 @strlen(ptr noundef %3) #3
  ret i64 %4
}

; Function Attrs: mustprogress uwtable
define linkonce_odr void @_ZN4absl7debian211string_viewC2EPKcm(ptr noundef nonnull align 8 dereferenceable(16) %0, ptr noundef %1, i64 noundef %2) unnamed_addr #4 comdat align 2 {
  %4 = alloca ptr, align 8
  %5 = alloca ptr, align 8
  %6 = alloca i64, align 8
  store ptr %0, ptr %4, align 8
  store ptr %1, ptr %5, align 8
  store i64 %2, ptr %6, align 8
  %7 = load ptr, ptr %4, align 8
  %8 = getelementptr inbounds nuw %"class.absl::debian2::string_view", ptr %7, i32 0, i32 0
  %9 = load ptr, ptr %5, align 8
  store ptr %9, ptr %8, align 8
  %10 = getelementptr inbounds nuw %"class.absl::debian2::string_view", ptr %7, i32 0, i32 1
  %11 = load i64, ptr %6, align 8
  %12 = call noundef i64 @_ZN4absl7debian211string_view19CheckLengthInternalEm(i64 noundef %11)
  store i64 %12, ptr %10, align 8
  ret void
}

; Function Attrs: mustprogress uwtable
define linkonce_odr void @_ZN4absl7debian211string_viewC2EPKc(ptr noundef nonnull align 8 dereferenceable(16) %0, ptr noundef %1) unnamed_addr #4 comdat align 2 {
  %3 = alloca ptr, align 8
  %4 = alloca ptr, align 8
  store ptr %0, ptr %3, align 8
  store ptr %1, ptr %4, align 8
  %5 = load ptr, ptr %3, align 8
  %6 = getelementptr inbounds nuw %"class.absl::debian2::string_view", ptr %5, i32 0, i32 0
  %7 = load ptr, ptr %4, align 8
  store ptr %7, ptr %6, align 8
  %8 = getelementptr inbounds nuw %"class.absl::debian2::string_view", ptr %5, i32 0, i32 1
  %9 = load ptr, ptr %4, align 8
  %10 = icmp ne ptr %9, null
  br i1 %10, label %11, label %15

11:                                               ; preds = %2
  %12 = load ptr, ptr %4, align 8
  %13 = call noundef i64 @_ZN4absl7debian211string_view14StrlenInternalEPKc(ptr noundef %12)
  %14 = call noundef i64 @_ZN4absl7debian211string_view19CheckLengthInternalEm(i64 noundef %13)
  br label %16

15:                                               ; preds = %2
  br label %16

16:                                               ; preds = %15, %11
  %17 = phi i64 [ %14, %11 ], [ 0, %15 ]
  store i64 %17, ptr %8, align 8
  ret void
}

; Function Attrs: mustprogress nounwind uwtable
define linkonce_odr noundef nonnull align 4 dereferenceable(4) ptr @_ZNSt14__array_traitsIiLm2EE6_S_refERA2_Kim(ptr noundef nonnull align 4 dereferenceable(8) %0, i64 noundef %1) #6 comdat align 2 {
  %3 = alloca ptr, align 8
  %4 = alloca i64, align 8
  store ptr %0, ptr %3, align 8
  store i64 %1, ptr %4, align 8
  %5 = load ptr, ptr %3, align 8
  %6 = load i64, ptr %4, align 8
  %7 = getelementptr inbounds [2 x i32], ptr %5, i64 0, i64 %6
  ret ptr %7
}

; Function Attrs: mustprogress uwtable
define linkonce_odr void @_ZN4absl7debian28AlphaNumC2Ei(ptr noundef nonnull align 8 dereferenceable(48) %0, i32 noundef %1) unnamed_addr #4 comdat align 2 {
  %3 = alloca ptr, align 8
  %4 = alloca i32, align 4
  store ptr %0, ptr %3, align 8
  store i32 %1, ptr %4, align 4
  %5 = load ptr, ptr %3, align 8
  %6 = getelementptr inbounds nuw %"class.absl::debian2::AlphaNum", ptr %5, i32 0, i32 0
  %7 = getelementptr inbounds nuw %"class.absl::debian2::AlphaNum", ptr %5, i32 0, i32 1
  %8 = getelementptr inbounds [32 x i8], ptr %7, i64 0, i64 0
  %9 = load i32, ptr %4, align 4
  %10 = getelementptr inbounds nuw %"class.absl::debian2::AlphaNum", ptr %5, i32 0, i32 1
  %11 = getelementptr inbounds [32 x i8], ptr %10, i64 0, i64 0
  %12 = call noundef ptr @_ZN4absl7debian216numbers_internal15FastIntToBufferEiPc(i32 noundef %9, ptr noundef %11)
  %13 = getelementptr inbounds nuw %"class.absl::debian2::AlphaNum", ptr %5, i32 0, i32 1
  %14 = getelementptr inbounds [32 x i8], ptr %13, i64 0, i64 0
  %15 = ptrtoint ptr %12 to i64
  %16 = ptrtoint ptr %14 to i64
  %17 = sub i64 %15, %16
  call void @_ZN4absl7debian211string_viewC2EPKcm(ptr noundef nonnull align 8 dereferenceable(16) %6, ptr noundef %8, i64 noundef %17)
  ret void
}

; Function Attrs: mustprogress uwtable
define linkonce_odr void @_ZN4absl7debian28AlphaNumC2EPKc(ptr noundef nonnull align 8 dereferenceable(48) %0, ptr noundef %1) unnamed_addr #4 comdat align 2 {
  %3 = alloca ptr, align 8
  %4 = alloca ptr, align 8
  store ptr %0, ptr %3, align 8
  store ptr %1, ptr %4, align 8
  %5 = load ptr, ptr %3, align 8
  %6 = getelementptr inbounds nuw %"class.absl::debian2::AlphaNum", ptr %5, i32 0, i32 0
  %7 = load ptr, ptr %4, align 8
  call void @_ZN4absl7debian211string_viewC2EPKc(ptr noundef nonnull align 8 dereferenceable(16) %6, ptr noundef %7)
  ret void
}

; Function Attrs: mustprogress nounwind uwtable
define linkonce_odr noundef nonnull align 4 dereferenceable(4) ptr @_ZNSt5arrayIiLm2EEixEm(ptr noundef nonnull align 4 dereferenceable(8) %0, i64 noundef %1) #6 comdat align 2 {
  %3 = alloca ptr, align 8
  %4 = alloca i64, align 8
  store ptr %0, ptr %3, align 8
  store i64 %1, ptr %4, align 8
  %5 = load ptr, ptr %3, align 8
  %6 = getelementptr inbounds nuw %"struct.std::array", ptr %5, i32 0, i32 0
  %7 = load i64, ptr %4, align 8
  %8 = call noundef nonnull align 4 dereferenceable(4) ptr @_ZNSt14__array_traitsIiLm2EE6_S_refERA2_Kim(ptr noundef nonnull align 4 dereferenceable(8) %6, i64 noundef %7) #3
  ret ptr %8
}

; Function Attrs: mustprogress uwtable
define noundef i64 @_ZN10open_spiel17morpion_solitaire4Line9GetActionEv(ptr noundef nonnull align 8 dereferenceable(48) %0) #4 align 2 personality ptr @__gxx_personality_v0 {
  %2 = alloca i64, align 8
  %3 = alloca ptr, align 8
  %4 = alloca i32, align 4
  %5 = alloca %"class.std::__cxx11::basic_string", align 8
  %6 = alloca %"class.absl::debian2::AlphaNum", align 8
  %7 = alloca %"class.absl::debian2::AlphaNum", align 8
  %8 = alloca %"class.absl::debian2::AlphaNum", align 8
  %9 = alloca ptr, align 8
  %10 = alloca i32, align 4
  store ptr %0, ptr %3, align 8
  %11 = load ptr, ptr %3, align 8
  %12 = getelementptr inbounds nuw %"class.open_spiel::morpion_solitaire::Line", ptr %11, i32 0, i32 0
  %13 = call noundef nonnull align 4 dereferenceable(4) ptr @_ZNSt5arrayIiLm2EEixEm(ptr noundef nonnull align 4 dereferenceable(8) %12, i64 noundef 0) #3
  %14 = load i32, ptr %13, align 4
  %15 = icmp eq i32 %14, 0
  br i1 %15, label %16, label %22

16:                                               ; preds = %1
  %17 = getelementptr inbounds nuw %"class.open_spiel::morpion_solitaire::Line", ptr %11, i32 0, i32 0
  %18 = call noundef nonnull align 4 dereferenceable(4) ptr @_ZNSt5arrayIiLm2EEixEm(ptr noundef nonnull align 4 dereferenceable(8) %17, i64 noundef 1) #3
  %19 = load i32, ptr %18, align 4
  %20 = icmp eq i32 %19, 1
  br i1 %20, label %21, label %22

21:                                               ; preds = %16
  store i32 1, ptr %4, align 4
  br label %47

22:                                               ; preds = %16, %1
  %23 = getelementptr inbounds nuw %"class.open_spiel::morpion_solitaire::Line", ptr %11, i32 0, i32 0
  %24 = call noundef nonnull align 4 dereferenceable(4) ptr @_ZNSt5arrayIiLm2EEixEm(ptr noundef nonnull align 4 dereferenceable(8) %23, i64 noundef 0) #3
  %25 = load i32, ptr %24, align 4
  %26 = icmp eq i32 %25, 1
  br i1 %26, label %27, label %33

27:                                               ; preds = %22
  %28 = getelementptr inbounds nuw %"class.open_spiel::morpion_solitaire::Line", ptr %11, i32 0, i32 0
  %29 = call noundef nonnull align 4 dereferenceable(4) ptr @_ZNSt5arrayIiLm2EEixEm(ptr noundef nonnull align 4 dereferenceable(8) %28, i64 noundef 1) #3
  %30 = load i32, ptr %29, align 4
  %31 = icmp eq i32 %30, 0
  br i1 %31, label %32, label %33

32:                                               ; preds = %27
  store i32 2, ptr %4, align 4
  br label %46

33:                                               ; preds = %27, %22
  %34 = getelementptr inbounds nuw %"class.open_spiel::morpion_solitaire::Line", ptr %11, i32 0, i32 0
  %35 = call noundef nonnull align 4 dereferenceable(4) ptr @_ZNSt5arrayIiLm2EEixEm(ptr noundef nonnull align 4 dereferenceable(8) %34, i64 noundef 0) #3
  %36 = load i32, ptr %35, align 4
  %37 = icmp eq i32 %36, 1
  br i1 %37, label %38, label %44

38:                                               ; preds = %33
  %39 = getelementptr inbounds nuw %"class.open_spiel::morpion_solitaire::Line", ptr %11, i32 0, i32 0
  %40 = call noundef nonnull align 4 dereferenceable(4) ptr @_ZNSt5arrayIiLm2EEixEm(ptr noundef nonnull align 4 dereferenceable(8) %39, i64 noundef 1) #3
  %41 = load i32, ptr %40, align 4
  %42 = icmp eq i32 %41, 1
  br i1 %42, label %43, label %44

43:                                               ; preds = %38
  store i32 3, ptr %4, align 4
  br label %45

44:                                               ; preds = %38, %33
  store i32 4, ptr %4, align 4
  br label %45

45:                                               ; preds = %44, %43
  br label %46

46:                                               ; preds = %45, %32
  br label %47

47:                                               ; preds = %46, %21
  %48 = load i32, ptr %4, align 4
  switch i32 %48, label %93 [
    i32 1, label %49
    i32 2, label %59
    i32 3, label %70
    i32 4, label %81
  ]

49:                                               ; preds = %47
  %50 = getelementptr inbounds nuw %"class.open_spiel::morpion_solitaire::Line", ptr %11, i32 0, i32 1
  %51 = getelementptr inbounds nuw %"struct.open_spiel::morpion_solitaire::Point", ptr %50, i32 0, i32 0
  %52 = load i32, ptr %51, align 8
  %53 = mul nsw i32 %52, 10
  %54 = getelementptr inbounds nuw %"class.open_spiel::morpion_solitaire::Line", ptr %11, i32 0, i32 1
  %55 = getelementptr inbounds nuw %"struct.open_spiel::morpion_solitaire::Point", ptr %54, i32 0, i32 1
  %56 = load i32, ptr %55, align 4
  %57 = add nsw i32 %53, %56
  %58 = sext i32 %57 to i64
  store i64 %58, ptr %2, align 8
  br label %100

59:                                               ; preds = %47
  %60 = getelementptr inbounds nuw %"class.open_spiel::morpion_solitaire::Line", ptr %11, i32 0, i32 1
  %61 = getelementptr inbounds nuw %"struct.open_spiel::morpion_solitaire::Point", ptr %60, i32 0, i32 0
  %62 = load i32, ptr %61, align 8
  %63 = mul nsw i32 %62, 13
  %64 = getelementptr inbounds nuw %"class.open_spiel::morpion_solitaire::Line", ptr %11, i32 0, i32 1
  %65 = getelementptr inbounds nuw %"struct.open_spiel::morpion_solitaire::Point", ptr %64, i32 0, i32 1
  %66 = load i32, ptr %65, align 4
  %67 = add nsw i32 %63, %66
  %68 = add nsw i32 %67, 130
  %69 = sext i32 %68 to i64
  store i64 %69, ptr %2, align 8
  br label %100

70:                                               ; preds = %47
  %71 = getelementptr inbounds nuw %"class.open_spiel::morpion_solitaire::Line", ptr %11, i32 0, i32 1
  %72 = getelementptr inbounds nuw %"struct.open_spiel::morpion_solitaire::Point", ptr %71, i32 0, i32 0
  %73 = load i32, ptr %72, align 8
  %74 = mul nsw i32 %73, 10
  %75 = getelementptr inbounds nuw %"class.open_spiel::morpion_solitaire::Line", ptr %11, i32 0, i32 1
  %76 = getelementptr inbounds nuw %"struct.open_spiel::morpion_solitaire::Point", ptr %75, i32 0, i32 1
  %77 = load i32, ptr %76, align 4
  %78 = add nsw i32 %74, %77
  %79 = add nsw i32 %78, 260
  %80 = sext i32 %79 to i64
  store i64 %80, ptr %2, align 8
  br label %100

81:                                               ; preds = %47
  %82 = getelementptr inbounds nuw %"class.open_spiel::morpion_solitaire::Line", ptr %11, i32 0, i32 2
  %83 = getelementptr inbounds nuw %"struct.open_spiel::morpion_solitaire::Point", ptr %82, i32 0, i32 0
  %84 = load i32, ptr %83, align 8
  %85 = sub nsw i32 %84, 3
  %86 = mul nsw i32 %85, 10
  %87 = getelementptr inbounds nuw %"class.open_spiel::morpion_solitaire::Line", ptr %11, i32 0, i32 2
  %88 = getelementptr inbounds nuw %"struct.open_spiel::morpion_solitaire::Point", ptr %87, i32 0, i32 1
  %89 = load i32, ptr %88, align 4
  %90 = add nsw i32 %86, %89
  %91 = add nsw i32 %90, 360
  %92 = sext i32 %91 to i64
  store i64 %92, ptr %2, align 8
  br label %100

93:                                               ; preds = %47
  call void @_ZN4absl7debian28AlphaNumC2EPKc(ptr noundef nonnull align 8 dereferenceable(48) %6, ptr noundef @.str.6)
  call void @_ZN4absl7debian28AlphaNumC2EPKc(ptr noundef nonnull align 8 dereferenceable(48) %7, ptr noundef @.str.7)
  %94 = load i32, ptr %4, align 4
  call void @_ZN4absl7debian28AlphaNumC2Ei(ptr noundef nonnull align 8 dereferenceable(48) %8, i32 noundef %94)
  call void @_ZN4absl7debian26StrCatB5cxx11ERKNS0_8AlphaNumES3_S3_(ptr dead_on_unwind writable sret(%"class.std::__cxx11::basic_string") align 8 %5, ptr noundef nonnull align 8 dereferenceable(48) %6, ptr noundef nonnull align 8 dereferenceable(48) %7, ptr noundef nonnull align 8 dereferenceable(48) %8)
  invoke void @_ZN10open_spiel15SpielFatalErrorERKNSt7__cxx1112basic_stringIcSt11char_traitsIcESaIcEEE(ptr noundef nonnull align 8 dereferenceable(32) %5) #15
          to label %95 unwind label %96

95:                                               ; preds = %93
  unreachable

96:                                               ; preds = %93
  %97 = landingpad { ptr, i32 }
          cleanup
  %98 = extractvalue { ptr, i32 } %97, 0
  store ptr %98, ptr %9, align 8
  %99 = extractvalue { ptr, i32 } %97, 1
  store i32 %99, ptr %10, align 4
  call void @_ZNSt7__cxx1112basic_stringIcSt11char_traitsIcESaIcEED1Ev(ptr noundef nonnull align 8 dereferenceable(32) %5) #3
  br label %102

100:                                              ; preds = %81, %70, %59, %49
  %101 = load i64, ptr %2, align 8
  ret i64 %101

102:                                              ; preds = %96
  %103 = load ptr, ptr %9, align 8
  %104 = load i32, ptr %10, align 4
  %105 = insertvalue { ptr, i32 } poison, ptr %103, 0
  %106 = insertvalue { ptr, i32 } %105, i32 %104, 1
  resume { ptr, i32 } %106
}