; Function Attrs: mustprogress nofree norecurse nosync nounwind willreturn memory(argmem: read) uwtable
define noundef range(i64 -2147483648, 2147483648) i64 @_ZN10open_spiel17morpion_solitaire4Line9GetActionEv(ptr nocapture noundef nonnull readonly align 8 dereferenceable(48) %0) local_unnamed_addr #8 align 2 personality ptr @__gxx_personality_v0 {
  %2 = load i32, ptr %0, align 8
  switch i32 %2, label %.thread7 [
    i32 0, label %3
    i32 1, label %7
  ]

3:                                                ; preds = %1
  %4 = getelementptr inbounds i8, ptr %0, i64 4
  %5 = load i32, ptr %4, align 4
  %6 = icmp eq i32 %5, 1
  br i1 %6, label %10, label %.thread7

7:                                                ; preds = %1
  %8 = getelementptr inbounds i8, ptr %0, i64 4
  %9 = load i32, ptr %8, align 4
  switch i32 %9, label %.thread7 [
    i32 0, label %17
    i32 1, label %25
  ]

10:                                               ; preds = %3
  %11 = getelementptr inbounds nuw i8, ptr %0, i64 8
  %12 = load i32, ptr %11, align 8
  %13 = mul nsw i32 %12, 10
  %14 = getelementptr inbounds i8, ptr %0, i64 12
  %15 = load i32, ptr %14, align 4
  %16 = add nsw i32 %13, %15
  br label %40

17:                                               ; preds = %7
  %18 = getelementptr inbounds nuw i8, ptr %0, i64 8
  %19 = load i32, ptr %18, align 8
  %20 = mul nsw i32 %19, 13
  %21 = getelementptr inbounds i8, ptr %0, i64 12
  %22 = load i32, ptr %21, align 4
  %23 = add i32 %22, 130
  %24 = add i32 %23, %20
  br label %40

25:                                               ; preds = %7
  %26 = getelementptr inbounds nuw i8, ptr %0, i64 8
  %27 = load i32, ptr %26, align 8
  %28 = mul nsw i32 %27, 10
  %29 = getelementptr inbounds i8, ptr %0, i64 12
  %30 = load i32, ptr %29, align 4
  %31 = add i32 %30, 260
  %32 = add i32 %31, %28
  br label %40

.thread7:                                         ; preds = %7, %1, %3
  %33 = getelementptr inbounds nuw i8, ptr %0, i64 16
  %34 = load i32, ptr %33, align 8
  %35 = mul i32 %34, 10
  %36 = getelementptr inbounds i8, ptr %0, i64 20
  %37 = load i32, ptr %36, align 4
  %38 = add i32 %35, 330
  %39 = add i32 %38, %37
  br label %40

40:                                               ; preds = %.thread7, %25, %17, %10
  %.0.in = phi i32 [ %39, %.thread7 ], [ %32, %25 ], [ %24, %17 ], [ %16, %10 ]
  %.0 = sext i32 %.0.in to i64
  ret i64 %.0
}